; Function Attrs: nounwind uwtable
define ptr @l_Array_foldlMUnsafe_fold___at_Lean_SSet_toList___spec__14___rarg(ptr noundef %0, ptr noundef readonly captures(none) %1, i64 noundef %2, i64 noundef %3, ptr noundef %4) local_unnamed_addr #0 {
  %.not85 = icmp eq i64 %2, %3
  br i1 %.not85, label %.._crit_edge_crit_edge, label %.lr.ph

.._crit_edge_crit_edge:                           ; preds = %5
  %.pre = ptrtoint ptr %0 to i64
  %.pre88 = and i64 %.pre, 1
  br label %._crit_edge

.lr.ph:                                           ; preds = %5
  %6 = getelementptr inbounds nuw i8, ptr %1, i64 24
  %7 = ptrtoint ptr %0 to i64
  %8 = and i64 %7, 1
  %.not80 = icmp eq i64 %8, 0
  br label %9

9:                                                ; preds = %.lr.ph, %lean_dec.exit41
  %.03487 = phi i64 [ %2, %.lr.ph ], [ %26, %lean_dec.exit41 ]
  %.03886 = phi ptr [ %4, %.lr.ph ], [ %.240, %lean_dec.exit41 ]
  %10 = getelementptr inbounds nuw [0 x ptr], ptr %6, i64 0, i64 %.03487
  %11 = load ptr, ptr %10, align 8, !tbaa !9
  %12 = ptrtoint ptr %11 to i64
  %13 = and i64 %12, 1
  %.not.i54 = icmp eq i64 %13, 0
  br i1 %.not.i54, label %14, label %20

14:                                               ; preds = %9
  %.val.i.i = load i32, ptr %11, align 4, !tbaa !4
  %15 = icmp sgt i32 %.val.i.i, 0
  br i1 %15, label %16, label %18, !prof !13

16:                                               ; preds = %14
  %17 = add nuw i32 %.val.i.i, 1
  store i32 %17, ptr %11, align 4, !tbaa !4
  br label %23

18:                                               ; preds = %14
  %.not.i.i = icmp eq i32 %.val.i.i, 0
  br i1 %.not.i.i, label %23, label %19

19:                                               ; preds = %18
  tail call void @lean_inc_ref_cold(ptr noundef nonnull %11) #3
  br label %23

20:                                               ; preds = %9
  %21 = lshr i64 %12, 1
  %22 = trunc i64 %21 to i32
  br label %lean_obj_tag.exit

23:                                               ; preds = %16, %18, %19
  %24 = getelementptr i8, ptr %11, i64 4
  %.val.i = load i32, ptr %24, align 4
  %25 = lshr i32 %.val.i, 24
  br label %lean_obj_tag.exit

lean_obj_tag.exit:                                ; preds = %20, %23
  %.0.i = phi i32 [ %22, %20 ], [ %25, %23 ]
  %26 = add i64 %.03487, 1
  switch i32 %.0.i, label %lean_dec.exit41 [
    i32 0, label %27
    i32 1, label %62
  ]

27:                                               ; preds = %lean_obj_tag.exit
  %28 = getelementptr inbounds nuw i8, ptr %11, i64 8
  %29 = load ptr, ptr %28, align 8, !tbaa !9
  %30 = ptrtoint ptr %29 to i64
  %31 = and i64 %30, 1
  %.not81 = icmp eq i64 %31, 0
  br i1 %.not81, label %32, label %lean_inc.exit47

32:                                               ; preds = %27
  %.val.i56 = load i32, ptr %29, align 4, !tbaa !4
  %33 = icmp sgt i32 %.val.i56, 0
  br i1 %33, label %34, label %36, !prof !13

34:                                               ; preds = %32
  %35 = add nuw i32 %.val.i56, 1
  store i32 %35, ptr %29, align 4, !tbaa !4
  br label %lean_inc.exit47

36:                                               ; preds = %32
  %.not.i57 = icmp eq i32 %.val.i56, 0
  br i1 %.not.i57, label %lean_inc.exit47, label %37

37:                                               ; preds = %36
  tail call void @lean_inc_ref_cold(ptr noundef nonnull %29) #3
  br label %lean_inc.exit47

lean_inc.exit47:                                  ; preds = %37, %36, %34, %27
  %38 = getelementptr inbounds nuw i8, ptr %11, i64 16
  %39 = load ptr, ptr %38, align 8, !tbaa !9
  %40 = ptrtoint ptr %39 to i64
  %41 = and i64 %40, 1
  %.not82 = icmp eq i64 %41, 0
  br i1 %.not82, label %42, label %lean_inc.exit46

42:                                               ; preds = %lean_inc.exit47
  %.val.i58 = load i32, ptr %39, align 4, !tbaa !4
  %43 = icmp sgt i32 %.val.i58, 0
  br i1 %43, label %44, label %46, !prof !13

44:                                               ; preds = %42
  %45 = add nuw i32 %.val.i58, 1
  store i32 %45, ptr %39, align 4, !tbaa !4
  br label %lean_inc.exit46

46:                                               ; preds = %42
  %.not.i59 = icmp eq i32 %.val.i58, 0
  br i1 %.not.i59, label %lean_inc.exit46, label %47

47:                                               ; preds = %46
  tail call void @lean_inc_ref_cold(ptr noundef nonnull %39) #3
  br label %lean_inc.exit46

lean_inc.exit46:                                  ; preds = %47, %46, %44, %lean_inc.exit47
  br i1 %.not.i54, label %48, label %lean_dec.exit43

48:                                               ; preds = %lean_inc.exit46
  %49 = load i32, ptr %11, align 4, !tbaa !4
  %50 = icmp sgt i32 %49, 1
  br i1 %50, label %51, label %53, !prof !13

51:                                               ; preds = %48
  %52 = add nsw i32 %49, -1
  store i32 %52, ptr %11, align 4, !tbaa !4
  br label %lean_dec.exit43

53:                                               ; preds = %48
  %.not.i = icmp eq i32 %49, 0
  br i1 %.not.i, label %lean_dec.exit43, label %54

54:                                               ; preds = %53
  tail call void @lean_dec_ref_cold(ptr noundef nonnull %11) #3
  br label %lean_dec.exit43

lean_dec.exit43:                                  ; preds = %54, %53, %51, %lean_inc.exit46
  br i1 %.not80, label %55, label %lean_inc.exit45

55:                                               ; preds = %lean_dec.exit43
  %.val.i61 = load i32, ptr %0, align 4, !tbaa !4
  %56 = icmp sgt i32 %.val.i61, 0
  br i1 %56, label %57, label %59, !prof !13

57:                                               ; preds = %55
  %58 = add nuw i32 %.val.i61, 1
  store i32 %58, ptr %0, align 4, !tbaa !4
  br label %lean_inc.exit45

59:                                               ; preds = %55
  %.not.i62 = icmp eq i32 %.val.i61, 0
  br i1 %.not.i62, label %lean_inc.exit45, label %60

60:                                               ; preds = %59
  tail call void @lean_inc_ref_cold(ptr noundef nonnull %0) #3
  br label %lean_inc.exit45

lean_inc.exit45:                                  ; preds = %60, %59, %57, %lean_dec.exit43
  %61 = tail call ptr @lean_apply_3(ptr noundef %0, ptr noundef %.03886, ptr noundef %29, ptr noundef %39) #3
  br label %lean_dec.exit41

62:                                               ; preds = %lean_obj_tag.exit
  %63 = getelementptr inbounds nuw i8, ptr %11, i64 8
  %64 = load ptr, ptr %63, align 8, !tbaa !9
  %65 = ptrtoint ptr %64 to i64
  %66 = and i64 %65, 1
  %.not78 = icmp eq i64 %66, 0
  br i1 %.not78, label %67, label %lean_inc.exit44

67:                                               ; preds = %62
  %.val.i64 = load i32, ptr %64, align 4, !tbaa !4
  %68 = icmp sgt i32 %.val.i64, 0
  br i1 %68, label %69, label %71, !prof !13

69:                                               ; preds = %67
  %70 = add nuw i32 %.val.i64, 1
  store i32 %70, ptr %64, align 4, !tbaa !4
  br label %lean_inc.exit44

71:                                               ; preds = %67
  %.not.i65 = icmp eq i32 %.val.i64, 0
  br i1 %.not.i65, label %lean_inc.exit44, label %72

72:                                               ; preds = %71
  tail call void @lean_inc_ref_cold(ptr noundef nonnull %64) #3
  br label %lean_inc.exit44

lean_inc.exit44:                                  ; preds = %72, %71, %69, %62
  br i1 %.not.i54, label %73, label %lean_dec.exit42

73:                                               ; preds = %lean_inc.exit44
  %74 = load i32, ptr %11, align 4, !tbaa !4
  %75 = icmp sgt i32 %74, 1
  br i1 %75, label %76, label %78, !prof !13

76:                                               ; preds = %73
  %77 = add nsw i32 %74, -1
  store i32 %77, ptr %11, align 4, !tbaa !4
  br label %lean_dec.exit42

78:                                               ; preds = %73
  %.not.i48 = icmp eq i32 %74, 0
  br i1 %.not.i48, label %lean_dec.exit42, label %79

79:                                               ; preds = %78
  tail call void @lean_dec_ref_cold(ptr noundef nonnull %11) #3
  br label %lean_dec.exit42

lean_dec.exit42:                                  ; preds = %79, %78, %76, %lean_inc.exit44
  br i1 %.not80, label %80, label %lean_inc.exit

80:                                               ; preds = %lean_dec.exit42
  %.val.i67 = load i32, ptr %0, align 4, !tbaa !4
  %81 = icmp sgt i32 %.val.i67, 0
  br i1 %81, label %82, label %84, !prof !13

82:                                               ; preds = %80
  %83 = add nuw i32 %.val.i67, 1
  store i32 %83, ptr %0, align 4, !tbaa !4
  br label %lean_inc.exit

84:                                               ; preds = %80
  %.not.i68 = icmp eq i32 %.val.i67, 0
  br i1 %.not.i68, label %lean_inc.exit, label %85

85:                                               ; preds = %84
  tail call void @lean_inc_ref_cold(ptr noundef nonnull %0) #3
  br label %lean_inc.exit

lean_inc.exit:                                    ; preds = %85, %84, %82, %lean_dec.exit42
  %86 = tail call ptr @l_Lean_PersistentHashMap_foldlMAux___at_Lean_SSet_toList___spec__13___rarg(ptr noundef %0, ptr noundef %64, ptr noundef %.03886)
  br i1 %.not78, label %87, label %lean_dec.exit41

87:                                               ; preds = %lean_inc.exit
  %88 = load i32, ptr %64, align 4, !tbaa !4
  %89 = icmp sgt i32 %88, 1
  br i1 %89, label %90, label %92, !prof !13

90:                                               ; preds = %87
  %91 = add nsw i32 %88, -1
  store i32 %91, ptr %64, align 4, !tbaa !4
  br label %lean_dec.exit41

92:                                               ; preds = %87
  %.not.i50 = icmp eq i32 %88, 0
  br i1 %.not.i50, label %lean_dec.exit41, label %93

93:                                               ; preds = %92
  tail call void @lean_dec_ref_cold(ptr noundef nonnull %64) #3
  br label %lean_dec.exit41

._crit_edge:                                      ; preds = %lean_dec.exit41, %.._crit_edge_crit_edge
  %.pre-phi89 = phi i64 [ %.pre88, %.._crit_edge_crit_edge ], [ %8, %lean_dec.exit41 ]
  %.038.lcssa = phi ptr [ %4, %.._crit_edge_crit_edge ], [ %.240, %lean_dec.exit41 ]
  %.not77 = icmp eq i64 %.pre-phi89, 0
  br i1 %.not77, label %94, label %101

94:                                               ; preds = %._crit_edge
  %95 = load i32, ptr %0, align 4, !tbaa !4
  %96 = icmp sgt i32 %95, 1
  br i1 %96, label %97, label %99, !prof !13

97:                                               ; preds = %94
  %98 = add nsw i32 %95, -1
  store i32 %98, ptr %0, align 4, !tbaa !4
  br label %101

99:                                               ; preds = %94
  %.not.i52 = icmp eq i32 %95, 0
  br i1 %.not.i52, label %101, label %100

100:                                              ; preds = %99
  tail call void @lean_dec_ref_cold(ptr noundef nonnull %0) #3
  br label %101

lean_dec.exit41:                                  ; preds = %lean_inc.exit, %90, %92, %93, %lean_inc.exit45, %lean_obj_tag.exit
  %.240 = phi ptr [ %61, %lean_inc.exit45 ], [ %.03886, %lean_obj_tag.exit ], [ %86, %93 ], [ %86, %92 ], [ %86, %90 ], [ %86, %lean_inc.exit ]
  %.not = icmp eq i64 %26, %3
  br i1 %.not, label %._crit_edge, label %9

101:                                              ; preds = %100, %99, %97, %._crit_edge
  ret ptr %.038.lcssa
}